; Function Attrs: nounwind uwtable
define ptr @l_Nat_SOM_Poly_mul_go(ptr noundef %0, ptr noundef %1, ptr noundef %2) local_unnamed_addr #0 {
  %4 = ptrtoint ptr %0 to i64
  %5 = and i64 %4, 1
  %.not56 = icmp eq i64 %5, 0
  br label %6

6:                                                ; preds = %lean_dec.exit, %3
  %.023 = phi ptr [ %2, %3 ], [ %94, %lean_dec.exit ]
  %.0 = phi ptr [ %1, %3 ], [ %36, %lean_dec.exit ]
  %7 = ptrtoint ptr %.0 to i64
  %8 = and i64 %7, 1
  %.not.i37 = icmp eq i64 %8, 0
  br i1 %.not.i37, label %12, label %9

9:                                                ; preds = %6
  %10 = lshr i64 %7, 1
  %11 = trunc i64 %10 to i32
  br label %lean_obj_tag.exit

12:                                               ; preds = %6
  %13 = getelementptr i8, ptr %.0, i64 4
  %.val.i = load i32, ptr %13, align 4
  %14 = lshr i32 %.val.i, 24
  br label %lean_obj_tag.exit

lean_obj_tag.exit:                                ; preds = %9, %12
  %.0.i = phi i32 [ %11, %9 ], [ %14, %12 ]
  %15 = icmp eq i32 %.0.i, 0
  br i1 %15, label %16, label %24

16:                                               ; preds = %lean_obj_tag.exit
  br i1 %.not56, label %17, label %lean_dec.exit30

17:                                               ; preds = %16
  %18 = load i32, ptr %0, align 4, !tbaa !8
  %19 = icmp sgt i32 %18, 1
  br i1 %19, label %20, label %22, !prof !11

20:                                               ; preds = %17
  %21 = add nsw i32 %18, -1
  store i32 %21, ptr %0, align 4, !tbaa !8
  br label %lean_dec.exit30

22:                                               ; preds = %17
  %.not.i = icmp eq i32 %18, 0
  br i1 %.not.i, label %lean_dec.exit30, label %23

23:                                               ; preds = %22
  tail call void @lean_dec_ref_cold(ptr noundef nonnull %0) #5
  br label %lean_dec.exit30

lean_dec.exit30:                                  ; preds = %23, %22, %20, %16
  ret ptr %.023

24:                                               ; preds = %lean_obj_tag.exit
  %25 = getelementptr inbounds nuw i8, ptr %.0, i64 8
  %26 = load ptr, ptr %25, align 8, !tbaa !4
  %27 = ptrtoint ptr %26 to i64
  %28 = and i64 %27, 1
  %.not = icmp eq i64 %28, 0
  br i1 %.not, label %29, label %lean_inc.exit27

29:                                               ; preds = %24
  %.val.i38 = load i32, ptr %26, align 4, !tbaa !8
  %30 = icmp sgt i32 %.val.i38, 0
  br i1 %30, label %31, label %33, !prof !11

31:                                               ; preds = %29
  %32 = add nuw i32 %.val.i38, 1
  store i32 %32, ptr %26, align 4, !tbaa !8
  br label %lean_inc.exit27

33:                                               ; preds = %29
  %.not.i39 = icmp eq i32 %.val.i38, 0
  br i1 %.not.i39, label %lean_inc.exit27, label %34

34:                                               ; preds = %33
  tail call void @lean_inc_ref_cold(ptr noundef nonnull %26) #5
  br label %lean_inc.exit27

lean_inc.exit27:                                  ; preds = %34, %33, %31, %24
  %35 = getelementptr inbounds nuw i8, ptr %.0, i64 16
  %36 = load ptr, ptr %35, align 8, !tbaa !4
  %37 = ptrtoint ptr %36 to i64
  %38 = and i64 %37, 1
  %.not52 = icmp eq i64 %38, 0
  br i1 %.not52, label %39, label %lean_inc.exit26

39:                                               ; preds = %lean_inc.exit27
  %.val.i40 = load i32, ptr %36, align 4, !tbaa !8
  %40 = icmp sgt i32 %.val.i40, 0
  br i1 %40, label %41, label %43, !prof !11

41:                                               ; preds = %39
  %42 = add nuw i32 %.val.i40, 1
  store i32 %42, ptr %36, align 4, !tbaa !8
  br label %lean_inc.exit26

43:                                               ; preds = %39
  %.not.i41 = icmp eq i32 %.val.i40, 0
  br i1 %.not.i41, label %lean_inc.exit26, label %44

44:                                               ; preds = %43
  tail call void @lean_inc_ref_cold(ptr noundef nonnull %36) #5
  br label %lean_inc.exit26

lean_inc.exit26:                                  ; preds = %44, %43, %41, %lean_inc.exit27
  br i1 %.not.i37, label %45, label %lean_dec.exit29

45:                                               ; preds = %lean_inc.exit26
  %46 = load i32, ptr %.0, align 4, !tbaa !8
  %47 = icmp sgt i32 %46, 1
  br i1 %47, label %48, label %50, !prof !11

48:                                               ; preds = %45
  %49 = add nsw i32 %46, -1
  store i32 %49, ptr %.0, align 4, !tbaa !8
  br label %lean_dec.exit29

50:                                               ; preds = %45
  %.not.i31 = icmp eq i32 %46, 0
  br i1 %.not.i31, label %lean_dec.exit29, label %51

51:                                               ; preds = %50
  tail call void @lean_dec_ref_cold(ptr noundef nonnull %.0) #5
  br label %lean_dec.exit29

lean_dec.exit29:                                  ; preds = %51, %50, %48, %lean_inc.exit26
  %52 = getelementptr inbounds nuw i8, ptr %26, i64 8
  %53 = load ptr, ptr %52, align 8, !tbaa !4
  %54 = ptrtoint ptr %53 to i64
  %55 = and i64 %54, 1
  %.not54 = icmp eq i64 %55, 0
  br i1 %.not54, label %56, label %lean_inc.exit25

56:                                               ; preds = %lean_dec.exit29
  %.val.i43 = load i32, ptr %53, align 4, !tbaa !8
  %57 = icmp sgt i32 %.val.i43, 0
  br i1 %57, label %58, label %60, !prof !11

58:                                               ; preds = %56
  %59 = add nuw i32 %.val.i43, 1
  store i32 %59, ptr %53, align 4, !tbaa !8
  br label %lean_inc.exit25

60:                                               ; preds = %56
  %.not.i44 = icmp eq i32 %.val.i43, 0
  br i1 %.not.i44, label %lean_inc.exit25, label %61

61:                                               ; preds = %60
  tail call void @lean_inc_ref_cold(ptr noundef nonnull %53) #5
  br label %lean_inc.exit25

lean_inc.exit25:                                  ; preds = %61, %60, %58, %lean_dec.exit29
  %62 = getelementptr inbounds nuw i8, ptr %26, i64 16
  %63 = load ptr, ptr %62, align 8, !tbaa !4
  %64 = ptrtoint ptr %63 to i64
  %65 = and i64 %64, 1
  %.not55 = icmp eq i64 %65, 0
  br i1 %.not55, label %66, label %lean_inc.exit24

66:                                               ; preds = %lean_inc.exit25
  %.val.i46 = load i32, ptr %63, align 4, !tbaa !8
  %67 = icmp sgt i32 %.val.i46, 0
  br i1 %67, label %68, label %70, !prof !11

68:                                               ; preds = %66
  %69 = add nuw i32 %.val.i46, 1
  store i32 %69, ptr %63, align 4, !tbaa !8
  br label %lean_inc.exit24

70:                                               ; preds = %66
  %.not.i47 = icmp eq i32 %.val.i46, 0
  br i1 %.not.i47, label %lean_inc.exit24, label %71

71:                                               ; preds = %70
  tail call void @lean_inc_ref_cold(ptr noundef nonnull %63) #5
  br label %lean_inc.exit24

lean_inc.exit24:                                  ; preds = %71, %70, %68, %lean_inc.exit25
  br i1 %.not, label %72, label %lean_dec.exit28

72:                                               ; preds = %lean_inc.exit24
  %73 = load i32, ptr %26, align 4, !tbaa !8
  %74 = icmp sgt i32 %73, 1
  br i1 %74, label %75, label %77, !prof !11

75:                                               ; preds = %72
  %76 = add nsw i32 %73, -1
  store i32 %76, ptr %26, align 4, !tbaa !8
  br label %lean_dec.exit28

77:                                               ; preds = %72
  %.not.i33 = icmp eq i32 %73, 0
  br i1 %.not.i33, label %lean_dec.exit28, label %78

78:                                               ; preds = %77
  tail call void @lean_dec_ref_cold(ptr noundef nonnull %26) #5
  br label %lean_dec.exit28

lean_dec.exit28:                                  ; preds = %78, %77, %75, %lean_inc.exit24
  br i1 %.not56, label %79, label %lean_inc.exit

79:                                               ; preds = %lean_dec.exit28
  %.val.i49 = load i32, ptr %0, align 4, !tbaa !8
  %80 = icmp sgt i32 %.val.i49, 0
  br i1 %80, label %81, label %83, !prof !11

81:                                               ; preds = %79
  %82 = add nuw i32 %.val.i49, 1
  store i32 %82, ptr %0, align 4, !tbaa !8
  br label %lean_inc.exit

83:                                               ; preds = %79
  %.not.i50 = icmp eq i32 %.val.i49, 0
  br i1 %.not.i50, label %lean_inc.exit, label %84

84:                                               ; preds = %83
  tail call void @lean_inc_ref_cold(ptr noundef nonnull %0) #5
  br label %lean_inc.exit

lean_inc.exit:                                    ; preds = %84, %83, %81, %lean_dec.exit28
  %85 = tail call ptr @l_Nat_SOM_Poly_mulMon_go(ptr noundef %53, ptr noundef %63, ptr noundef %0, ptr noundef nonnull inttoptr (i64 1 to ptr))
  br i1 %.not54, label %86, label %lean_dec.exit

86:                                               ; preds = %lean_inc.exit
  %87 = load i32, ptr %53, align 4, !tbaa !8
  %88 = icmp sgt i32 %87, 1
  br i1 %88, label %89, label %91, !prof !11

89:                                               ; preds = %86
  %90 = add nsw i32 %87, -1
  store i32 %90, ptr %53, align 4, !tbaa !8
  br label %lean_dec.exit

91:                                               ; preds = %86
  %.not.i35 = icmp eq i32 %87, 0
  br i1 %.not.i35, label %lean_dec.exit, label %92

92:                                               ; preds = %91
  tail call void @lean_dec_ref_cold(ptr noundef nonnull %53) #5
  br label %lean_dec.exit

lean_dec.exit:                                    ; preds = %92, %91, %89, %lean_inc.exit
  %93 = load ptr, ptr @l_Nat_Linear_hugeFuel, align 8, !tbaa !4
  %94 = tail call ptr @l_Nat_SOM_Poly_add_go(ptr noundef %93, ptr noundef %.023, ptr noundef %85)
  br label %6
}